; Function Attrs: nounwind uwtable
define ptr @l_Lean_Elab_Info_range_x3f___boxed(ptr noundef %0) local_unnamed_addr #0 {
  %2 = tail call ptr @l_Lean_Elab_Info_stx(ptr noundef %0)
  %3 = tail call ptr @l_Lean_Syntax_getRange_x3f(ptr noundef %2, i8 noundef zeroext 1) #7
  %4 = ptrtoint ptr %2 to i64
  %5 = and i64 %4, 1
  %.not.i3 = icmp eq i64 %5, 0
  br i1 %.not.i3, label %6, label %l_Lean_Elab_Info_range_x3f.exit

6:                                                ; preds = %1
  %7 = load i32, ptr %2, align 4, !tbaa !4
  %8 = icmp sgt i32 %7, 1
  br i1 %8, label %9, label %11, !prof !15

9:                                                ; preds = %6
  %10 = add nsw i32 %7, -1
  store i32 %10, ptr %2, align 4, !tbaa !4
  br label %l_Lean_Elab_Info_range_x3f.exit

11:                                               ; preds = %6
  %.not.i.i = icmp eq i32 %7, 0
  br i1 %.not.i.i, label %l_Lean_Elab_Info_range_x3f.exit, label %12

12:                                               ; preds = %11
  tail call void @lean_dec_ref_cold(ptr noundef nonnull %2) #7
  br label %l_Lean_Elab_Info_range_x3f.exit

l_Lean_Elab_Info_range_x3f.exit:                  ; preds = %1, %9, %11, %12
  %13 = ptrtoint ptr %0 to i64
  %14 = and i64 %13, 1
  %.not = icmp eq i64 %14, 0
  br i1 %.not, label %15, label %lean_dec.exit

15:                                               ; preds = %l_Lean_Elab_Info_range_x3f.exit
  %16 = load i32, ptr %0, align 4, !tbaa !4
  %17 = icmp sgt i32 %16, 1
  br i1 %17, label %18, label %20, !prof !15

18:                                               ; preds = %15
  %19 = add nsw i32 %16, -1
  store i32 %19, ptr %0, align 4, !tbaa !4
  br label %lean_dec.exit

20:                                               ; preds = %15
  %.not.i = icmp eq i32 %16, 0
  br i1 %.not.i, label %lean_dec.exit, label %21

21:                                               ; preds = %20
  tail call void @lean_dec_ref_cold(ptr noundef nonnull %0) #7
  br label %lean_dec.exit

lean_dec.exit:                                    ; preds = %21, %20, %18, %l_Lean_Elab_Info_range_x3f.exit
  ret ptr %3
}